ARM GAS  C:\Users\Jonas\AppData\Local\Temp\ccD5v1mD.s 			page 1


   1              		.syntax unified
   2              		.cpu cortex-m3
   3              		.fpu softvfp
   4              		.eabi_attribute 20, 1
   5              		.eabi_attribute 21, 1
   6              		.eabi_attribute 23, 3
   7              		.eabi_attribute 24, 1
   8              		.eabi_attribute 25, 1
   9              		.eabi_attribute 26, 1
  10              		.eabi_attribute 30, 6
  11              		.eabi_attribute 34, 1
  12              		.eabi_attribute 18, 4
  13              		.thumb
  14              		.file	"main.c"
  15              		.text
  16              	.Ltext0:
  17              		.cfi_sections	.debug_frame
  18              		.global	i
  19              		.bss
  20              		.type	i, %object
  21              		.size	i, 1
  22              	i:
  23 0000 00       		.space	1
  24              		.section	.text.filterVDAC,"ax",%progbits
  25              		.align	2
  26              		.global	filterVDAC
  27              		.thumb
  28              		.thumb_func
  29              		.type	filterVDAC, %function
  30              	filterVDAC:
  31              	.LFB56:
  32              		.file 1 ".\\main.c"
   1:.\main.c      **** /* ========================================
   2:.\main.c      ****  *
   3:.\main.c      ****  * Copyright YOUR COMPANY, THE YEAR
   4:.\main.c      ****  * All Rights Reserved
   5:.\main.c      ****  * UNPUBLISHED, LICENSED SOFTWARE.
   6:.\main.c      ****  *
   7:.\main.c      ****  * CONFIDENTIAL AND PROPRIETARY INFORMATION
   8:.\main.c      ****  * WHICH IS THE PROPERTY OF your company.
   9:.\main.c      ****  *
  10:.\main.c      ****  * ========================================
  11:.\main.c      **** */
  12:.\main.c      **** #include <project.h>
  13:.\main.c      **** 
  14:.\main.c      **** #define DMA_1_BYTES_PER_BURST 1
  15:.\main.c      **** #define DMA_1_REQUEST_PER_BURST 1
  16:.\main.c      **** #define DMA_1_SRC_BASE (CYDEV_PERIPH_BASE)
  17:.\main.c      **** #define DMA_1_DST_BASE (CYDEV_PERIPH_BASE)
  18:.\main.c      **** 
  19:.\main.c      **** uint8 i = 0; 
  20:.\main.c      **** 
  21:.\main.c      **** CY_ISR(filterVDAC)
  22:.\main.c      **** {
  33              		.loc 1 22 0
  34              		.cfi_startproc
  35              		@ args = 0, pretend = 0, frame = 0
ARM GAS  C:\Users\Jonas\AppData\Local\Temp\ccD5v1mD.s 			page 2


  36              		@ frame_needed = 1, uses_anonymous_args = 0
  37 0000 80B5     		push	{r7, lr}
  38              	.LCFI0:
  39              		.cfi_def_cfa_offset 8
  40              		.cfi_offset 7, -8
  41              		.cfi_offset 14, -4
  42 0002 00AF     		add	r7, sp, #0
  43              	.LCFI1:
  44              		.cfi_def_cfa_register 7
  23:.\main.c      **** 	VDAC8_1_Data = (Filter_HOLDAH_REG + 128);
  45              		.loc 1 23 0
  46 0004 45F68333 		movw	r3, #23427
  47 0008 C4F20003 		movt	r3, 16384
  48 000c 4CF2AA72 		movw	r2, #51114
  49 0010 C4F20002 		movt	r2, 16384
  50 0014 1278     		ldrb	r2, [r2, #0]
  51 0016 D2B2     		uxtb	r2, r2
  52 0018 A2F18002 		sub	r2, r2, #128
  53 001c D2B2     		uxtb	r2, r2
  54 001e 1A70     		strb	r2, [r3, #0]
  24:.\main.c      ****     Diode_1_Write(i); 
  55              		.loc 1 24 0
  56 0020 40F20003 		movw	r3, #:lower16:i
  57 0024 C0F20003 		movt	r3, #:upper16:i
  58 0028 1B78     		ldrb	r3, [r3, #0]	@ zero_extendqisi2
  59 002a 1846     		mov	r0, r3
  60 002c FFF7FEFF 		bl	Diode_1_Write
  25:.\main.c      ****     i = ~i; 
  61              		.loc 1 25 0
  62 0030 40F20003 		movw	r3, #:lower16:i
  63 0034 C0F20003 		movt	r3, #:upper16:i
  64 0038 1B78     		ldrb	r3, [r3, #0]	@ zero_extendqisi2
  65 003a 6FEA0303 		mvn	r3, r3
  66 003e DAB2     		uxtb	r2, r3
  67 0040 40F20003 		movw	r3, #:lower16:i
  68 0044 C0F20003 		movt	r3, #:upper16:i
  69 0048 1A70     		strb	r2, [r3, #0]
  26:.\main.c      **** }
  70              		.loc 1 26 0
  71 004a 80BD     		pop	{r7, pc}
  72              		.cfi_endproc
  73              	.LFE56:
  74              		.size	filterVDAC, .-filterVDAC
  75              		.section	.text.main,"ax",%progbits
  76              		.align	2
  77              		.global	main
  78              		.thumb
  79              		.thumb_func
  80              		.type	main, %function
  81              	main:
  82              	.LFB57:
  27:.\main.c      **** void setupDMA();
  28:.\main.c      **** 
  29:.\main.c      **** void main()
  30:.\main.c      **** {
  83              		.loc 1 30 0
  84              		.cfi_startproc
ARM GAS  C:\Users\Jonas\AppData\Local\Temp\ccD5v1mD.s 			page 3


  85              		@ args = 0, pretend = 0, frame = 0
  86              		@ frame_needed = 1, uses_anonymous_args = 0
  87 0000 80B5     		push	{r7, lr}
  88              	.LCFI2:
  89              		.cfi_def_cfa_offset 8
  90              		.cfi_offset 7, -8
  91              		.cfi_offset 14, -4
  92 0002 00AF     		add	r7, sp, #0
  93              	.LCFI3:
  94              		.cfi_def_cfa_register 7
  31:.\main.c      ****     /* Place your initialization/startup code here (e.g. MyInst_Start()) */
  32:.\main.c      **** 	Opamp_1_Start();
  95              		.loc 1 32 0
  96 0004 FFF7FEFF 		bl	Opamp_1_Start
  33:.\main.c      **** 	Opamp_3_Start();
  97              		.loc 1 33 0
  98 0008 FFF7FEFF 		bl	Opamp_3_Start
  34:.\main.c      ****     Clock_1_Start(); 
  99              		.loc 1 34 0
 100 000c FFF7FEFF 		bl	Clock_1_Start
  35:.\main.c      **** 	ADC_DelSig_1_Start();
 101              		.loc 1 35 0
 102 0010 FFF7FEFF 		bl	ADC_DelSig_1_Start
  36:.\main.c      **** 	ADC_DelSig_1_StartConvert();
 103              		.loc 1 36 0
 104 0014 FFF7FEFF 		bl	ADC_DelSig_1_StartConvert
  37:.\main.c      **** 	VDAC8_1_Start();
 105              		.loc 1 37 0
 106 0018 FFF7FEFF 		bl	VDAC8_1_Start
  38:.\main.c      **** 	VDAC8_2_Start();
 107              		.loc 1 38 0
 108 001c FFF7FEFF 		bl	VDAC8_2_Start
  39:.\main.c      **** 	Filter_Start();
 109              		.loc 1 39 0
 110 0020 FFF7FEFF 		bl	Filter_Start
  40:.\main.c      ****     
  41:.\main.c      ****     setupDMA();
 111              		.loc 1 41 0
 112 0024 FFF7FEFF 		bl	setupDMA
  42:.\main.c      ****     
  43:.\main.c      ****     CyGlobalIntEnable;  /* Uncomment this line to enable global interrupts. */
 113              		.loc 1 43 0
 114              	@ 43 ".\main.c" 1
 115 0028 62B6     		CPSIE   i
 116              	@ 0 "" 2
  44:.\main.c      ****     
  45:.\main.c      ****     isr_StartEx(filterVDAC);
 117              		.loc 1 45 0
 118              		.thumb
 119 002a 40F20000 		movw	r0, #:lower16:filterVDAC
 120 002e C0F20000 		movt	r0, #:upper16:filterVDAC
 121 0032 FFF7FEFF 		bl	isr_StartEx
 122              	.L3:
  46:.\main.c      ****     for(;;)
  47:.\main.c      ****     {
  48:.\main.c      **** 		/* Place your application code here. */
  49:.\main.c      **** 		
ARM GAS  C:\Users\Jonas\AppData\Local\Temp\ccD5v1mD.s 			page 4


  50:.\main.c      ****     }
 123              		.loc 1 50 0 discriminator 1
 124 0036 FEE7     		b	.L3
 125              		.cfi_endproc
 126              	.LFE57:
 127              		.size	main, .-main
 128              		.section	.text.setupDMA,"ax",%progbits
 129              		.align	2
 130              		.global	setupDMA
 131              		.thumb
 132              		.thumb_func
 133              		.type	setupDMA, %function
 134              	setupDMA:
 135              	.LFB58:
  51:.\main.c      **** }
  52:.\main.c      **** 
  53:.\main.c      **** 
  54:.\main.c      **** void setupDMA(){
 136              		.loc 1 54 0
 137              		.cfi_startproc
 138              		@ args = 0, pretend = 0, frame = 8
 139              		@ frame_needed = 1, uses_anonymous_args = 0
 140 0000 80B5     		push	{r7, lr}
 141              	.LCFI4:
 142              		.cfi_def_cfa_offset 8
 143              		.cfi_offset 7, -8
 144              		.cfi_offset 14, -4
 145 0002 82B0     		sub	sp, sp, #8
 146              	.LCFI5:
 147              		.cfi_def_cfa_offset 16
 148 0004 00AF     		add	r7, sp, #0
 149              	.LCFI6:
 150              		.cfi_def_cfa_register 7
  55:.\main.c      **** uint8 DMA_1_Chan;
  56:.\main.c      **** uint8 DMA_1_TD[1];
  57:.\main.c      **** 
  58:.\main.c      **** DMA_1_Chan = DMA_1_DmaInitialize(DMA_1_BYTES_PER_BURST, DMA_1_REQUEST_PER_BURST, 
 151              		.loc 1 58 0
 152 0006 4FF00100 		mov	r0, #1
 153 000a 4FF00101 		mov	r1, #1
 154 000e 4FF48042 		mov	r2, #16384
 155 0012 4FF48043 		mov	r3, #16384
 156 0016 FFF7FEFF 		bl	DMA_1_DmaInitialize
 157 001a 0346     		mov	r3, r0
 158 001c FB71     		strb	r3, [r7, #7]
  59:.\main.c      ****     HI16(DMA_1_SRC_BASE), HI16(DMA_1_DST_BASE));
  60:.\main.c      **** 
  61:.\main.c      **** DMA_1_TD[0] = CyDmaTdAllocate();
 159              		.loc 1 61 0
 160 001e FFF7FEFF 		bl	CyDmaTdAllocate
 161 0022 0346     		mov	r3, r0
 162 0024 3B71     		strb	r3, [r7, #4]
  62:.\main.c      **** 
  63:.\main.c      **** CyDmaTdSetConfiguration(DMA_1_TD[0], 1, DMA_INVALID_TD, 0);
 163              		.loc 1 63 0
 164 0026 3B79     		ldrb	r3, [r7, #4]	@ zero_extendqisi2
 165 0028 1846     		mov	r0, r3
ARM GAS  C:\Users\Jonas\AppData\Local\Temp\ccD5v1mD.s 			page 5


 166 002a 4FF00101 		mov	r1, #1
 167 002e 4FF0FF02 		mov	r2, #255
 168 0032 4FF00003 		mov	r3, #0
 169 0036 FFF7FEFF 		bl	CyDmaTdSetConfiguration
  64:.\main.c      **** 
  65:.\main.c      **** CyDmaTdSetAddress(DMA_1_TD[0], LO16((uint32)ADC_DelSig_1_DEC_SAMP_PTR), LO16((uint32)Filter_STAGEAH
 170              		.loc 1 65 0
 171 003a 3B79     		ldrb	r3, [r7, #4]	@ zero_extendqisi2
 172 003c 1846     		mov	r0, r3
 173 003e 44F61061 		movw	r1, #19984
 174 0042 4CF2A272 		movw	r2, #51106
 175 0046 FFF7FEFF 		bl	CyDmaTdSetAddress
  66:.\main.c      **** 
  67:.\main.c      **** CyDmaChSetInitialTd(DMA_1_Chan, DMA_1_TD[0]);
 176              		.loc 1 67 0
 177 004a 3B79     		ldrb	r3, [r7, #4]	@ zero_extendqisi2
 178 004c FA79     		ldrb	r2, [r7, #7]	@ zero_extendqisi2
 179 004e 1046     		mov	r0, r2
 180 0050 1946     		mov	r1, r3
 181 0052 FFF7FEFF 		bl	CyDmaChSetInitialTd
  68:.\main.c      **** 
  69:.\main.c      **** CyDmaChEnable(DMA_1_Chan, 1);
 182              		.loc 1 69 0
 183 0056 FB79     		ldrb	r3, [r7, #7]	@ zero_extendqisi2
 184 0058 1846     		mov	r0, r3
 185 005a 4FF00101 		mov	r1, #1
 186 005e FFF7FEFF 		bl	CyDmaChEnable
  70:.\main.c      **** 
  71:.\main.c      **** }
 187              		.loc 1 71 0
 188 0062 07F10807 		add	r7, r7, #8
 189 0066 BD46     		mov	sp, r7
 190 0068 80BD     		pop	{r7, pc}
 191              		.cfi_endproc
 192              	.LFE58:
 193              		.size	setupDMA, .-setupDMA
 194 006a 00BF     		.text
 195              	.Letext0:
 196              		.file 2 "c:\\program files (x86)\\cypress\\psoc creator\\3.0\\psoc creator\\import\\gnu_cs\\arm\\4
 197              		.file 3 "./Generated_Source/PSoC5/cytypes.h"
 198              		.file 4 "./Generated_Source/PSoC5/core_cm3.h"