ARM GAS  C:\Users\Jonas\AppData\Local\Temp\cctNgvhh.s 			page 1


   1              		.syntax unified
   2              		.cpu cortex-m3
   3              		.fpu softvfp
   4              		.eabi_attribute 20, 1
   5              		.eabi_attribute 21, 1
   6              		.eabi_attribute 23, 3
   7              		.eabi_attribute 24, 1
   8              		.eabi_attribute 25, 1
   9              		.eabi_attribute 26, 1
  10              		.eabi_attribute 30, 6
  11              		.eabi_attribute 34, 1
  12              		.eabi_attribute 18, 4
  13              		.thumb
  14              		.file	"main.c"
  15              		.text
  16              	.Ltext0:
  17              		.cfi_sections	.debug_frame
  18              		.global	i
  19              		.bss
  20              		.type	i, %object
  21              		.size	i, 1
  22              	i:
  23 0000 00       		.space	1
  24              		.comm	result,1,1
  25              		.section	.text.filterVDAC,"ax",%progbits
  26              		.align	2
  27              		.global	filterVDAC
  28              		.thumb
  29              		.thumb_func
  30              		.type	filterVDAC, %function
  31              	filterVDAC:
  32              	.LFB56:
  33              		.file 1 ".\\main.c"
   1:.\main.c      **** /* ========================================
   2:.\main.c      ****  *
   3:.\main.c      ****  * Copyright YOUR COMPANY, THE YEAR
   4:.\main.c      ****  * All Rights Reserved
   5:.\main.c      ****  * UNPUBLISHED, LICENSED SOFTWARE.
   6:.\main.c      ****  *
   7:.\main.c      ****  * CONFIDENTIAL AND PROPRIETARY INFORMATION
   8:.\main.c      ****  * WHICH IS THE PROPERTY OF your company.
   9:.\main.c      ****  *
  10:.\main.c      ****  * ========================================
  11:.\main.c      **** */
  12:.\main.c      **** #include <project.h>
  13:.\main.c      **** 
  14:.\main.c      **** uint8 i = 0; 
  15:.\main.c      **** int8 result; 
  16:.\main.c      **** 
  17:.\main.c      **** CY_ISR(filterVDAC)
  18:.\main.c      **** {
  34              		.loc 1 18 0
  35              		.cfi_startproc
  36              		@ args = 0, pretend = 0, frame = 0
  37              		@ frame_needed = 1, uses_anonymous_args = 0
  38 0000 80B5     		push	{r7, lr}
  39              	.LCFI0:
ARM GAS  C:\Users\Jonas\AppData\Local\Temp\cctNgvhh.s 			page 2


  40              		.cfi_def_cfa_offset 8
  41              		.cfi_offset 7, -8
  42              		.cfi_offset 14, -4
  43 0002 00AF     		add	r7, sp, #0
  44              	.LCFI1:
  45              		.cfi_def_cfa_register 7
  19:.\main.c      ****     result = ADC_DelSig_1_GetResult8();
  46              		.loc 1 19 0
  47 0004 FFF7FEFF 		bl	ADC_DelSig_1_GetResult8
  48 0008 0346     		mov	r3, r0
  49 000a 1A46     		mov	r2, r3
  50 000c 40F20003 		movw	r3, #:lower16:result
  51 0010 C0F20003 		movt	r3, #:upper16:result
  52 0014 1A70     		strb	r2, [r3, #0]
  20:.\main.c      **** 	VDAC8_1_Data = (result + 128);
  53              		.loc 1 20 0
  54 0016 45F68333 		movw	r3, #23427
  55 001a C4F20003 		movt	r3, 16384
  56 001e 40F20002 		movw	r2, #:lower16:result
  57 0022 C0F20002 		movt	r2, #:upper16:result
  58 0026 1278     		ldrb	r2, [r2, #0]	@ zero_extendqisi2
  59 0028 D2B2     		uxtb	r2, r2
  60 002a A2F18002 		sub	r2, r2, #128
  61 002e D2B2     		uxtb	r2, r2
  62 0030 1A70     		strb	r2, [r3, #0]
  21:.\main.c      ****     Diode_1_Write(i); 
  63              		.loc 1 21 0
  64 0032 40F20003 		movw	r3, #:lower16:i
  65 0036 C0F20003 		movt	r3, #:upper16:i
  66 003a 1B78     		ldrb	r3, [r3, #0]	@ zero_extendqisi2
  67 003c 1846     		mov	r0, r3
  68 003e FFF7FEFF 		bl	Diode_1_Write
  22:.\main.c      ****     i = ~i; 
  69              		.loc 1 22 0
  70 0042 40F20003 		movw	r3, #:lower16:i
  71 0046 C0F20003 		movt	r3, #:upper16:i
  72 004a 1B78     		ldrb	r3, [r3, #0]	@ zero_extendqisi2
  73 004c 6FEA0303 		mvn	r3, r3
  74 0050 DAB2     		uxtb	r2, r3
  75 0052 40F20003 		movw	r3, #:lower16:i
  76 0056 C0F20003 		movt	r3, #:upper16:i
  77 005a 1A70     		strb	r2, [r3, #0]
  23:.\main.c      **** }
  78              		.loc 1 23 0
  79 005c 80BD     		pop	{r7, pc}
  80              		.cfi_endproc
  81              	.LFE56:
  82              		.size	filterVDAC, .-filterVDAC
  83 005e 00BF     		.section	.text.main,"ax",%progbits
  84              		.align	2
  85              		.global	main
  86              		.thumb
  87              		.thumb_func
  88              		.type	main, %function
  89              	main:
  90              	.LFB57:
  24:.\main.c      **** 
ARM GAS  C:\Users\Jonas\AppData\Local\Temp\cctNgvhh.s 			page 3


  25:.\main.c      **** 
  26:.\main.c      **** void main()
  27:.\main.c      **** {
  91              		.loc 1 27 0
  92              		.cfi_startproc
  93              		@ args = 0, pretend = 0, frame = 0
  94              		@ frame_needed = 1, uses_anonymous_args = 0
  95 0000 80B5     		push	{r7, lr}
  96              	.LCFI2:
  97              		.cfi_def_cfa_offset 8
  98              		.cfi_offset 7, -8
  99              		.cfi_offset 14, -4
 100 0002 00AF     		add	r7, sp, #0
 101              	.LCFI3:
 102              		.cfi_def_cfa_register 7
  28:.\main.c      ****     /* Place your initialization/startup code here (e.g. MyInst_Start()) */
  29:.\main.c      **** 	Opamp_1_Start();
 103              		.loc 1 29 0
 104 0004 FFF7FEFF 		bl	Opamp_1_Start
  30:.\main.c      **** 	Opamp_3_Start();
 105              		.loc 1 30 0
 106 0008 FFF7FEFF 		bl	Opamp_3_Start
  31:.\main.c      ****     Clock_1_Start(); 
 107              		.loc 1 31 0
 108 000c FFF7FEFF 		bl	Clock_1_Start
  32:.\main.c      **** 	ADC_DelSig_1_Start();
 109              		.loc 1 32 0
 110 0010 FFF7FEFF 		bl	ADC_DelSig_1_Start
  33:.\main.c      **** 	ADC_DelSig_1_StartConvert();
 111              		.loc 1 33 0
 112 0014 FFF7FEFF 		bl	ADC_DelSig_1_StartConvert
  34:.\main.c      **** 	VDAC8_1_Start();
 113              		.loc 1 34 0
 114 0018 FFF7FEFF 		bl	VDAC8_1_Start
  35:.\main.c      **** 	VDAC8_2_Start();
 115              		.loc 1 35 0
 116 001c FFF7FEFF 		bl	VDAC8_2_Start
  36:.\main.c      ****    Diode_1_Write(1);
 117              		.loc 1 36 0
 118 0020 4FF00100 		mov	r0, #1
 119 0024 FFF7FEFF 		bl	Diode_1_Write
  37:.\main.c      ****     CyGlobalIntEnable;  /* Uncomment this line to enable global interrupts. */
 120              		.loc 1 37 0
 121              	@ 37 ".\main.c" 1
 122 0028 62B6     		CPSIE   i
 123              	@ 0 "" 2
  38:.\main.c      ****     
  39:.\main.c      ****     isr_StartEx(filterVDAC);
 124              		.loc 1 39 0
 125              		.thumb
 126 002a 40F20000 		movw	r0, #:lower16:filterVDAC
 127 002e C0F20000 		movt	r0, #:upper16:filterVDAC
 128 0032 FFF7FEFF 		bl	isr_StartEx
 129              	.L3:
  40:.\main.c      ****     for(;;)
  41:.\main.c      ****     {
  42:.\main.c      **** 		/* Place your application code here. */
ARM GAS  C:\Users\Jonas\AppData\Local\Temp\cctNgvhh.s 			page 4


  43:.\main.c      **** 		
  44:.\main.c      ****     }
 130              		.loc 1 44 0 discriminator 1
 131 0036 FEE7     		b	.L3
 132              		.cfi_endproc
 133              	.LFE57:
 134              		.size	main, .-main
 135              		.text
 136              	.Letext0:
 137              		.file 2 "c:\\program files (x86)\\cypress\\psoc creator\\3.0\\psoc creator\\import\\gnu_cs\\arm\\4
 138              		.file 3 "./Generated_Source/PSoC5/cytypes.h"
 139              		.file 4 "./Generated_Source/PSoC5/core_cm3.h"